target datalayout = "e-m:e-p270:32:32-p271:32:32-p272:64:64-i64:64-i128:128-f80:128-n8:16:32:64-S128"
target triple = "x86_64-pc-linux-gnu"

@_ZN12_GLOBAL__N_117pluralCategoryIdsE = internal global [7 x ptr] [ptr @.str, ptr @.str.15, ptr @.str.16, ptr @.str.17, ptr @.str.18, ptr @.str.19, ptr @.str.20], align 16

; Function Attrs: mustprogress nounwind uwtable
define ptr @udispopt_getPluralCategoryIdentifier_77(i32 noundef %0) #1 {
  %2 = alloca ptr, align 8
  %3 = alloca i32, align 4
  store i32 %0, ptr %3, align 4, !tbaa !40
  %4 = load i32, ptr %3, align 4, !tbaa !40
  %5 = icmp sge i32 %4, 0
  br i1 %5, label %6, label %14

6:                                                ; preds = %1
  %7 = load i32, ptr %3, align 4, !tbaa !40
  %8 = icmp slt i32 %7, 7
  br i1 %8, label %9, label %14

9:                                                ; preds = %6
  %10 = load i32, ptr %3, align 4, !tbaa !40
  %11 = zext i32 %10 to i64
  %12 = getelementptr inbounds nuw [7 x ptr], ptr @_ZN12_GLOBAL__N_117pluralCategoryIdsE, i64 0, i64 %11
  %13 = load ptr, ptr %12, align 8, !tbaa !34
  store ptr %13, ptr %2, align 8
  br label %16

14:                                               ; preds = %6, %1
  %15 = load ptr, ptr @_ZN12_GLOBAL__N_117pluralCategoryIdsE, align 16, !tbaa !34
  store ptr %15, ptr %2, align 8
  br label %16

16:                                               ; preds = %14, %9
  %17 = load ptr, ptr %2, align 8
  ret ptr %17
}